target datalayout = "e-m:e-p270:32:32-p271:32:32-p272:64:64-i64:64-i128:128-f80:128-n8:16:32:64-S128"
target triple = "x86_64-pc-linux-gnu"

; Function Attrs: nounwind uwtable
define dso_local void @disconnectDatabase(ptr noundef %0) #0 {
  %2 = alloca ptr, align 8
  %3 = alloca ptr, align 8
  store ptr %0, ptr %2, align 8
  %4 = load ptr, ptr %2, align 8
  %5 = call i32 @PQtransactionStatus(ptr noundef %4)
  %6 = icmp eq i32 %5, 1
  br i1 %6, label %7, label %13

7:                                                ; preds = %1
  call void @llvm.lifetime.start.p0(i64 8, ptr %3) #5
  %8 = load ptr, ptr %2, align 8
  %9 = call ptr @PQcancelCreate(ptr noundef %8)
  store ptr %9, ptr %3, align 8
  %10 = load ptr, ptr %3, align 8
  %11 = call i32 @PQcancelBlocking(ptr noundef %10)
  %12 = load ptr, ptr %3, align 8
  call void @PQcancelFinish(ptr noundef %12)
  call void @llvm.lifetime.end.p0(i64 8, ptr %3) #5
  br label %13

13:                                               ; preds = %7, %1
  %14 = load ptr, ptr %2, align 8
  call void @PQfinish(ptr noundef %14)
  ret void
}