; Function Attrs: nounwind uwtable
define dso_local void @disconnectDatabase(ptr noundef %0) local_unnamed_addr #0 {
  %2 = tail call i32 @PQtransactionStatus(ptr noundef %0) #5
  %3 = icmp eq i32 %2, 1
  br i1 %3, label %4, label %7

4:                                                ; preds = %1
  %5 = tail call ptr @PQcancelCreate(ptr noundef %0) #5
  %6 = tail call i32 @PQcancelBlocking(ptr noundef %5) #5
  tail call void @PQcancelFinish(ptr noundef %5) #5
  br label %7

7:                                                ; preds = %4, %1
  tail call void @PQfinish(ptr noundef %0) #5
  ret void
}